(dp0
Vfafb
p1
(dp2
Vcmc
p3
((lp4
L1L
aL2L
aL3L
aL4L
aL5L
aL6L
aL7L
aL8L
aL9L
aL10L
aL11L
aL12L
aL13L
aL14L
aL15L
aL16L
aL17L
aL18L
aL19L
aL20L
aL21L
aL22L
aL23L
aL24L
aL25L
aL26L
aL27L
aL28L
aL29L
aL30L
aL31L
aL32L
aL33L
aL34L
aL35L
aL36L
aL37L
aL38L
aL39L
aL40L
aL41L
aL42L
aL43L
aL44L
aL45L
aL46L
aL47L
aL48L
aL49L
a(lp5
F0.5161290322580645
aF0.5917338709677419
aF0.6300403225806451
aF0.6582661290322581
aF0.6854838709677419
aF0.6945564516129032
aF0.7076612903225806
aF0.7157258064516129
aF0.7237903225806451
aF0.7298387096774194
aF0.7389112903225806
aF0.7449596774193549
aF0.7530241935483871
aF0.7550403225806451
aF0.7590725806451613
aF0.7610887096774194
aF0.7641129032258065
aF0.7681451612903226
aF0.7721774193548387
aF0.7782258064516129
aF0.7832661290322581
aF0.7842741935483871
aF0.7943548387096774
aF0.8004032258064516
aF0.8054435483870968
aF0.8064516129032258
aF0.8084677419354839
aF0.8125
aF0.8155241935483871
aF0.8185483870967742
aF0.8215725806451613
aF0.8225806451612904
aF0.8245967741935484
aF0.8245967741935484
aF0.8296370967741935
aF0.8306451612903226
aF0.8356854838709677
aF0.8356854838709677
aF0.8387096774193549
aF0.84375
aF0.84375
aF0.844758064516129
aF0.8467741935483871
aF0.8467741935483871
aF0.8497983870967742
aF0.8518145161290323
aF0.8518145161290323
aF0.8518145161290323
aF0.8518145161290323
atp6
sVroc
p7
((lp8
F0.0
aF1.7257884569116307e-05
aF0.0001309568887891767
aF0.0005684950211003019
aF0.0015075269755963363
aF0.0032282395841052858
aF0.005970212891233706
aF0.0098735403128956
aF0.015150392312323045
aF0.022178412010675528
aF0.03112104172651938
aF0.04255692817776028
aF0.05655713324203575
aF0.07374395593351452
aF0.09391233197672826
aF0.11712114121314808
aF0.1441013058127601
aF0.17440412077676726
aF0.20761133619678862
aF0.2438204083621557
aF0.2834059348849864
aF0.32518422791777535
aF0.36801119123055825
aF0.41233248431309055
aF0.4572517123374587
aF0.5016440672976286
aF0.5463521400284451
aF0.5896968398783016
aF0.6313289484770933
aF0.670526680181959
aF0.7074108401848828
aF0.7419032604204631
aF0.7735603117383055
aF0.8023515390479943
aF0.8283672924510969
aF0.8517882721507487
aF0.8724632178645501
aF0.8907058170237865
aF0.9068429542655908
aF0.9208248862756166
aF0.9329947404058853
aF0.9435555505925038
aF0.9526474102513866
aF0.9602479856495615
aF0.9667907542406177
aF0.9723366262053872
aF0.9770135129236177
aF0.9808955217819884
aF0.9841572619655513
aF0.9868708105216247
aF0.9891529119634702
aF0.9909670201825885
aF0.9925364725086976
aF0.993792237403521
aF0.9948469987015981
aF0.9957444086991921
aF0.9965047707899137
aF0.9971301153131241
aF0.9976133360810594
aF0.9980478287043288
aF0.9984193808074051
aF0.9986985524695526
aF0.9989361021747981
aF0.9991360906018637
aF0.9992792295268194
aF0.9994172926033723
aF0.9995249005895092
aF0.9996132203517157
aF0.9996781912112701
aF0.9997330103740191
aF0.9997888447064486
aF0.9998274211543089
aF0.9998548307356834
aF0.9998761492989747
aF0.9999015285409881
aF0.999914725746835
aF0.9999299532920431
aF0.9999441656675706
aF0.9999533021946955
aF0.9999583780430982
aF0.9999675145702229
aF0.9999715752489451
aF0.9999786814367089
aF0.9999868027941531
aF0.9999908634728752
aF0.9999928938122363
aF0.9999949241515974
aF0.999995939321278
aF0.999995939321278
aF0.9999969544909585
aF0.9999969544909585
aF0.999997969660639
aF0.9999989848303196
aF0.9999989848303196
aF0.9999989848303196
aF0.9999989848303196
aF0.9999989848303196
aF0.9999989848303196
aF0.9999989848303196
aF0.9999989848303196
a(lp9
F0.0
aF0.23464249748237664
aF0.35448136958710974
aF0.46727089627391744
aF0.540785498489426
aF0.6092648539778449
aF0.6666666666666666
aF0.7119838872104733
aF0.7472306143001007
aF0.7774420946626385
aF0.7945619335347432
aF0.8227593152064451
aF0.8459214501510574
aF0.8640483383685801
aF0.8862034239677744
aF0.9063444108761329
aF0.918429003021148
aF0.9284994964753273
aF0.9385699899295066
aF0.9476334340382678
aF0.9516616314199395
aF0.9556898288016112
aF0.9587109768378651
aF0.9647532729103726
aF0.9697885196374623
aF0.9778449144008057
aF0.9788519637462235
aF0.9828801611278952
aF0.9859013091641491
aF0.9889224572004028
aF0.9899295065458208
aF0.9919436052366566
aF0.9939577039274925
aF0.9949647532729103
aF0.9949647532729103
aF0.9949647532729103
aF0.9949647532729103
aF0.9949647532729103
aF0.9949647532729103
aF0.9959718026183283
aF0.9959718026183283
aF0.9969788519637462
aF0.9969788519637462
aF0.9979859013091642
aF0.9979859013091642
aF0.9979859013091642
aF0.9979859013091642
aF0.9979859013091642
aF0.9979859013091642
aF0.998992950654582
aF0.998992950654582
aF0.998992950654582
aF0.998992950654582
aF0.998992950654582
aF0.998992950654582
aF0.998992950654582
aF0.998992950654582
aF0.998992950654582
aF0.998992950654582
aF0.998992950654582
aF0.998992950654582
aF0.998992950654582
aF0.998992950654582
aF0.998992950654582
aF0.998992950654582
aF0.998992950654582
aF0.998992950654582
aF0.998992950654582
aF0.998992950654582
aF0.998992950654582
aF0.998992950654582
aF0.998992950654582
aF0.998992950654582
aF0.998992950654582
aF0.998992950654582
aF0.998992950654582
aF0.998992950654582
aF0.998992950654582
aF0.998992950654582
aF0.998992950654582
aF0.998992950654582
aF0.998992950654582
aF0.998992950654582
aF0.998992950654582
aF0.998992950654582
aF0.998992950654582
aF0.998992950654582
aF0.998992950654582
aF0.998992950654582
aF0.998992950654582
aF0.998992950654582
aF0.998992950654582
aF0.998992950654582
aF0.998992950654582
aF0.998992950654582
aF0.998992950654582
aF0.998992950654582
aF0.998992950654582
aF0.998992950654582
aF0.998992950654582
atp10
ssVdup1
p11
(dp12
g3
(g4
(lp13
F0.09510869565217392
aF0.125
aF0.13994565217391305
aF0.15489130434782608
aF0.16304347826086957
aF0.1671195652173913
aF0.1671195652173913
aF0.17391304347826086
aF0.17798913043478262
aF0.18614130434782608
aF0.19293478260869565
aF0.1956521739130435
aF0.20108695652173914
aF0.20516304347826086
aF0.20652173913043478
aF0.2078804347826087
aF0.21603260869565216
aF0.22010869565217392
aF0.22146739130434784
aF0.22418478260869565
aF0.2269021739130435
aF0.23097826086956522
aF0.23233695652173914
aF0.23369565217391305
aF0.2418478260869565
aF0.24456521739130435
aF0.24592391304347827
aF0.24864130434782608
aF0.25271739130434784
aF0.25407608695652173
aF0.25679347826086957
aF0.25815217391304346
aF0.2608695652173913
aF0.2608695652173913
aF0.264945652173913
aF0.264945652173913
aF0.26766304347826086
aF0.2703804347826087
aF0.27445652173913043
aF0.27717391304347827
aF0.2798913043478261
aF0.2826086956521739
aF0.28396739130434784
aF0.28396739130434784
aF0.2866847826086957
aF0.28940217391304346
aF0.2907608695652174
aF0.2921195652173913
aF0.29483695652173914
atp14
sg7
((lp15
F0.0
aF9.577901864817493e-06
aF0.00012314445254765348
aF0.0005226797874800403
aF0.0015064671361662942
aF0.003376894543195653
aF0.006278998808235354
aF0.01046864673824552
aF0.016378212188837914
aF0.02417325603510438
aF0.03404807285773121
aF0.04619558896570974
aF0.06098523771668292
aF0.07893696235474085
aF0.10016980251734625
aF0.12479732475518197
aF0.15230232236754787
aF0.183152744274125
aF0.21702431008320458
aF0.2533286629659478
aF0.2920959048996441
aF0.3327582031308793
aF0.3754523848291507
aF0.4189661612727116
aF0.463077872446976
aF0.506951504346315
aF0.5503558190542779
aF0.5924233323162513
aF0.632903650412055
aF0.671583322957273
aF0.7080108202925638
aF0.7418604937545238
aF0.7729517314794163
aF0.8016717543569191
aF0.8276661800180337
aF0.8507667110442786
aF0.8714070895629603
aF0.8897911880566299
aF0.9058204909632496
aF0.920121666719117
aF0.9324402167889673
aF0.9430333762514554
aF0.9520201847440442
aF0.9597509198206469
aF0.966362408650761
aF0.9720858891508368
aF0.976744854272223
aF0.9806471651462887
aF0.9840336375913492
aF0.9868112291321463
aF0.9891879170663159
aF0.9911541234919935
aF0.9926701685300247
aF0.9939823410855047
aF0.99500991312843
aF0.9959348647942324
aF0.9966614170642636
aF0.9972566152515772
aF0.9977574026919377
aF0.9981364139514455
aF0.9984538529846794
aF0.9987247707802842
aF0.9989669548702946
aF0.9991489350057261
aF0.999310391065733
aF0.9994321672465858
aF0.9995170000916741
aF0.9996073060235424
aF0.9996962436837157
aF0.9997509745515146
aF0.9997961275174488
aF0.9998344391249081
aF0.9998631728305025
aF0.9998836969059272
aF0.9999110623398266
aF0.9999261133284714
aF0.9999411643171161
aF0.9999507422189808
aF0.9999616883925406
aF0.9999698980227105
aF0.9999712662944055
aF0.9999753711094904
aF0.9999781076528803
aF0.9999808441962703
aF0.9999835807396602
aF0.9999876855547452
aF0.9999904220981352
aF0.99999452691322
aF0.99999452691322
aF0.99999452691322
aF0.999995895184915
aF0.99999726345661
aF0.99999726345661
aF0.99999726345661
aF0.99999726345661
aF0.99999726345661
aF0.99999726345661
aF0.99999726345661
aF0.99999726345661
aF0.99999726345661
a(lp16
F0.0
aF0.016282225237449117
aF0.05427408412483039
aF0.08005427408412483
aF0.10040705563093621
aF0.13025780189959293
aF0.15196743554952508
aF0.18317503392130258
aF0.21031207598371776
aF0.2225237449118046
aF0.24559023066485752
aF0.26865671641791045
aF0.29172320217096337
aF0.316146540027137
aF0.3568521031207598
aF0.3948439620081411
aF0.42605156037991854
aF0.46268656716417905
aF0.5101763907734057
aF0.5400271370420624
aF0.5753052917232021
aF0.598371777476255
aF0.6200814111261872
aF0.6594301221166893
aF0.6879240162822252
aF0.7150610583446404
aF0.7516960651289009
aF0.7829036635006784
aF0.8113975576662144
aF0.8385345997286295
aF0.8548168249660786
aF0.8710990502035277
aF0.8860244233378561
aF0.8995929443690637
aF0.9131614654002713
aF0.9280868385345996
aF0.9402985074626865
aF0.9497964721845318
aF0.9579375848032564
aF0.9633649932157394
aF0.9687924016282224
aF0.9728629579375847
aF0.9823609226594301
aF0.9823609226594301
aF0.9864314789687924
aF0.9877883310719131
aF0.9891451831750339
aF0.9905020352781546
aF0.9945725915875169
aF0.9959294436906376
aF0.9959294436906376
aF0.9959294436906376
aF0.9972862957937584
aF0.9972862957937584
aF0.9972862957937584
aF0.9972862957937584
aF0.9972862957937584
aF0.9972862957937584
aF0.9986431478968791
aF0.9986431478968791
aF0.9986431478968791
aF0.9986431478968791
aF0.9986431478968791
aF0.9986431478968791
aF0.9986431478968791
aF0.9986431478968791
aF0.9986431478968791
aF0.9986431478968791
aF0.9986431478968791
aF0.9986431478968791
aF0.9986431478968791
aF0.9986431478968791
aF0.9986431478968791
aF0.9986431478968791
aF0.9986431478968791
aF0.9986431478968791
aF0.9986431478968791
aF0.9986431478968791
aF0.9986431478968791
aF0.9986431478968791
aF0.9986431478968791
aF0.9986431478968791
aF0.9986431478968791
aF0.9986431478968791
aF0.9986431478968791
aF0.9986431478968791
aF0.9986431478968791
aF0.9986431478968791
aF0.9986431478968791
aF0.9986431478968791
aF0.9986431478968791
aF0.9986431478968791
aF0.9986431478968791
aF0.9986431478968791
aF0.9986431478968791
aF0.9986431478968791
aF0.9986431478968791
aF0.9986431478968791
aF0.9986431478968791
aF0.9986431478968791
atp17
ssVdup2
p18
(dp19
g3
(g4
(lp20
F0.0
aF0.0
aF0.0
aF0.0043859649122807015
aF0.008771929824561403
aF0.008771929824561403
aF0.008771929824561403
aF0.008771929824561403
aF0.013157894736842105
aF0.017543859649122806
aF0.017543859649122806
aF0.017543859649122806
aF0.017543859649122806
aF0.017543859649122806
aF0.017543859649122806
aF0.017543859649122806
aF0.017543859649122806
aF0.017543859649122806
aF0.021929824561403508
aF0.021929824561403508
aF0.021929824561403508
aF0.02631578947368421
aF0.02631578947368421
aF0.03508771929824561
aF0.03508771929824561
aF0.03508771929824561
aF0.039473684210526314
aF0.05263157894736842
aF0.06140350877192982
aF0.06140350877192982
aF0.06578947368421052
aF0.07017543859649122
aF0.07017543859649122
aF0.07456140350877193
aF0.07894736842105263
aF0.08333333333333333
aF0.08771929824561403
aF0.08771929824561403
aF0.08771929824561403
aF0.08771929824561403
aF0.08771929824561403
aF0.09210526315789473
aF0.09649122807017543
aF0.10087719298245613
aF0.10087719298245613
aF0.10087719298245613
aF0.10526315789473684
aF0.10526315789473684
aF0.10526315789473684
atp21
sg7
((lp22
F0.0
aF0.00019434199774739957
aF0.00044610322210198534
aF0.0011660519864843974
aF0.002442525562597999
aF0.004726044036129944
aF0.008184448223316623
aF0.01299882953114993
aF0.019147103641704025
aF0.02681477882555597
aF0.036761555619354694
aF0.04878867516176763
aF0.06362491994434752
aF0.08191515205052892
aF0.10275833130893752
aF0.12698482807358494
aF0.15459464234447118
aF0.18504449990062055
aF0.21882025573640157
aF0.255705483536141
aF0.29543075462114354
aF0.3372937876813675
aF0.38102515403811754
aF0.4252688765707471
aF0.47032088513946246
aF0.5148605375322983
aF0.5587111592058479
aF0.6021112607937104
aF0.644018462489786
aF0.6830149510832357
aF0.7193569046619995
aF0.7532033303151432
aF0.7839579514586692
aF0.8117311896822067
aF0.8367041363927475
aF0.8590004637706764
aF0.8783993286367351
aF0.8959033590247565
aF0.9112652105739714
aF0.9242375389236104
aF0.9354122037940859
aF0.9456637441752611
aF0.9544003003467237
aF0.9616572072171551
aF0.9677878138733685
aF0.973238223537466
aF0.9776418365318786
aF0.981405004306442
aF0.9843643029085046
aF0.9869128331971467
aF0.9890770963538791
aF0.990782005697754
aF0.9924162452242662
aF0.9935999646650913
aF0.9947041805613833
aF0.99566705682295
aF0.9964400079503545
aF0.9970097833528411
aF0.9975530575738168
aF0.9980344957046001
aF0.9984364302908505
aF0.9987014421059606
aF0.9989178684216338
aF0.9991431284644774
aF0.9992844680992027
aF0.9994258077339281
aF0.9995406461871424
aF0.9996289834588459
aF0.9996908195490382
aF0.9997482387756454
aF0.9998144917294229
aF0.9998321591837636
aF0.9998542435016894
aF0.9998851615467856
aF0.9999116627282966
aF0.9999381639098076
aF0.9999514145005631
aF0.9999558313641483
aF0.9999646650913186
aF0.9999690819549037
aF0.999973498818489
aF0.9999779156820742
aF0.9999823325456593
aF0.9999867494092445
aF0.9999911662728297
aF0.9999911662728297
aF0.9999911662728297
aF0.9999911662728297
aF0.9999911662728297
aF0.9999955831364148
aF0.9999955831364148
aF0.9999955831364148
aF0.9999955831364148
aF0.9999955831364148
aF0.9999955831364148
aF0.9999955831364148
aF0.9999955831364148
aF0.9999955831364148
aF0.9999955831364148
aF0.9999955831364148
a(lp23
F0.0
aF0.0
aF0.0
aF0.0
aF0.0
aF0.004366812227074236
aF0.004366812227074236
aF0.008733624454148471
aF0.013100436681222707
aF0.03930131004366812
aF0.0611353711790393
aF0.07860262008733623
aF0.09606986899563319
aF0.1222707423580786
aF0.16593886462882096
aF0.19213973799126638
aF0.22707423580786024
aF0.2707423580786026
aF0.31004366812227074
aF0.3537117903930131
aF0.4017467248908297
aF0.43668122270742354
aF0.47161572052401746
aF0.5283842794759825
aF0.5720524017467249
aF0.6244541484716157
aF0.6899563318777292
aF0.7336244541484715
aF0.7510917030567685
aF0.7641921397379913
aF0.7991266375545851
aF0.834061135371179
aF0.8646288209606986
aF0.8733624454148471
aF0.9039301310043668
aF0.9344978165938864
aF0.9475982532751092
aF0.9606986899563318
aF0.9737991266375545
aF0.9781659388646288
aF0.982532751091703
aF0.9868995633187773
aF0.9912663755458515
aF0.9912663755458515
aF0.9912663755458515
aF0.9912663755458515
aF0.9956331877729258
aF0.9956331877729258
aF0.9956331877729258
aF0.9956331877729258
aF0.9956331877729258
aF0.9956331877729258
aF0.9956331877729258
aF0.9956331877729258
aF0.9956331877729258
aF0.9956331877729258
aF0.9956331877729258
aF0.9956331877729258
aF0.9956331877729258
aF0.9956331877729258
aF0.9956331877729258
aF0.9956331877729258
aF0.9956331877729258
aF0.9956331877729258
aF0.9956331877729258
aF0.9956331877729258
aF0.9956331877729258
aF0.9956331877729258
aF0.9956331877729258
aF0.9956331877729258
aF0.9956331877729258
aF0.9956331877729258
aF0.9956331877729258
aF0.9956331877729258
aF0.9956331877729258
aF0.9956331877729258
aF0.9956331877729258
aF0.9956331877729258
aF0.9956331877729258
aF0.9956331877729258
aF0.9956331877729258
aF0.9956331877729258
aF0.9956331877729258
aF0.9956331877729258
aF0.9956331877729258
aF0.9956331877729258
aF0.9956331877729258
aF0.9956331877729258
aF0.9956331877729258
aF0.9956331877729258
aF0.9956331877729258
aF0.9956331877729258
aF0.9956331877729258
aF0.9956331877729258
aF0.9956331877729258
aF0.9956331877729258
aF0.9956331877729258
aF0.9956331877729258
aF0.9956331877729258
aF0.9956331877729258
atp24
ss.